target datalayout = "e-m:e-p270:32:32-p271:32:32-p272:64:64-i64:64-i128:128-f80:128-n8:16:32:64-S128"
target triple = "x86_64-pc-linux-gnu"

%struct._expr = type { i32, %union.anon, i32, i32, i32, i32 }
%union.anon = type { %struct.anon.1 }
%struct.anon.1 = type { ptr, i32, ptr }
%struct.anon.10 = type { ptr, ptr }
%struct.asdl_comprehension_seq = type { i64, ptr, [1 x ptr] }

; Function Attrs: nounwind uwtable
define internal i32 @append_ast_comprehensions(ptr noundef %0, ptr noundef %1) #0 {
  %3 = alloca i32, align 4
  %4 = alloca ptr, align 8
  %5 = alloca ptr, align 8
  %6 = alloca i64, align 8
  %7 = alloca i64, align 8
  %8 = alloca i32, align 4
  store ptr %0, ptr %4, align 8, !tbaa !11
  store ptr %1, ptr %5, align 8, !tbaa !20
  call void @llvm.lifetime.start.p0(i64 8, ptr %6) #6
  call void @llvm.lifetime.start.p0(i64 8, ptr %7) #6
  %9 = load ptr, ptr %5, align 8, !tbaa !20
  %10 = icmp eq ptr %9, null
  br i1 %10, label %11, label %12

11:                                               ; preds = %2
  br label %16

12:                                               ; preds = %2
  %13 = load ptr, ptr %5, align 8, !tbaa !20
  %14 = getelementptr inbounds nuw %struct.asdl_comprehension_seq, ptr %13, i32 0, i32 0
  %15 = load i64, ptr %14, align 8, !tbaa !21
  br label %16

16:                                               ; preds = %12, %11
  %17 = phi i64 [ 0, %11 ], [ %15, %12 ]
  store i64 %17, ptr %7, align 8, !tbaa !24
  store i64 0, ptr %6, align 8, !tbaa !24
  br label %18

18:                                               ; preds = %36, %16
  %19 = load i64, ptr %6, align 8, !tbaa !24
  %20 = load i64, ptr %7, align 8, !tbaa !24
  %21 = icmp slt i64 %19, %20
  br i1 %21, label %22, label %39

22:                                               ; preds = %18
  br label %23

23:                                               ; preds = %22
  %24 = load ptr, ptr %4, align 8, !tbaa !11
  %25 = load ptr, ptr %5, align 8, !tbaa !20
  %26 = getelementptr inbounds nuw %struct.asdl_comprehension_seq, ptr %25, i32 0, i32 2
  %27 = load i64, ptr %6, align 8, !tbaa !24
  %28 = getelementptr [1 x ptr], ptr %26, i64 0, i64 %27
  %29 = load ptr, ptr %28, align 8, !tbaa !58
  %30 = call i32 @append_ast_comprehension(ptr noundef %24, ptr noundef %29)
  %31 = icmp eq i32 -1, %30
  br i1 %31, label %32, label %33

32:                                               ; preds = %23
  store i32 -1, ptr %3, align 4
  store i32 1, ptr %8, align 4
  br label %40

33:                                               ; preds = %23
  br label %34

34:                                               ; preds = %33
  br label %35

35:                                               ; preds = %34
  br label %36

36:                                               ; preds = %35
  %37 = load i64, ptr %6, align 8, !tbaa !24
  %38 = add i64 %37, 1
  store i64 %38, ptr %6, align 8, !tbaa !24
  br label %18, !llvm.loop !60

39:                                               ; preds = %18
  store i32 0, ptr %3, align 4
  store i32 1, ptr %8, align 4
  br label %40

40:                                               ; preds = %39, %32
  call void @llvm.lifetime.end.p0(i64 8, ptr %7) #6
  call void @llvm.lifetime.end.p0(i64 8, ptr %6) #6
  %41 = load i32, ptr %3, align 4
  ret i32 %41
}

; Function Attrs: nounwind uwtable
define internal i32 @append_char(ptr noundef %0, i32 noundef %1) #0 {
  %3 = alloca ptr, align 8
  %4 = alloca i32, align 4
  store ptr %0, ptr %3, align 8, !tbaa !11
  store i32 %1, ptr %4, align 4, !tbaa !9
  %5 = load ptr, ptr %3, align 8, !tbaa !11
  %6 = load i32, ptr %4, align 4, !tbaa !9
  %7 = call i32 @PyUnicodeWriter_WriteChar(ptr noundef %5, i32 noundef %6)
  ret i32 %7
}

; Function Attrs: nounwind uwtable
define internal i32 @append_ast_genexp(ptr noundef %0, ptr noundef %1) #0 {
  %3 = alloca i32, align 4
  %4 = alloca ptr, align 8
  %5 = alloca ptr, align 8
  store ptr %0, ptr %4, align 8, !tbaa !11
  store ptr %1, ptr %5, align 8, !tbaa !4
  br label %6

6:                                                ; preds = %2
  %7 = load ptr, ptr %4, align 8, !tbaa !11
  %8 = call i32 @append_char(ptr noundef %7, i32 noundef 40)
  %9 = icmp eq i32 -1, %8
  br i1 %9, label %10, label %11

10:                                               ; preds = %6
  store i32 -1, ptr %3, align 4
  br label %38

11:                                               ; preds = %6
  br label %12

12:                                               ; preds = %11
  br label %13

13:                                               ; preds = %12
  %14 = load ptr, ptr %4, align 8, !tbaa !11
  %15 = load ptr, ptr %5, align 8, !tbaa !4
  %16 = getelementptr inbounds nuw %struct._expr, ptr %15, i32 0, i32 1
  %17 = getelementptr inbounds nuw %struct.anon.10, ptr %16, i32 0, i32 0
  %18 = load ptr, ptr %17, align 8, !tbaa !15
  %19 = call i32 @append_ast_expr(ptr noundef %14, ptr noundef %18, i32 noundef 1)
  %20 = icmp eq i32 -1, %19
  br i1 %20, label %21, label %22

21:                                               ; preds = %13
  store i32 -1, ptr %3, align 4
  br label %38

22:                                               ; preds = %13
  br label %23

23:                                               ; preds = %22
  br label %24

24:                                               ; preds = %23
  %25 = load ptr, ptr %4, align 8, !tbaa !11
  %26 = load ptr, ptr %5, align 8, !tbaa !4
  %27 = getelementptr inbounds nuw %struct._expr, ptr %26, i32 0, i32 1
  %28 = getelementptr inbounds nuw %struct.anon.10, ptr %27, i32 0, i32 1
  %29 = load ptr, ptr %28, align 8, !tbaa !15
  %30 = call i32 @append_ast_comprehensions(ptr noundef %25, ptr noundef %29)
  %31 = icmp eq i32 -1, %30
  br i1 %31, label %32, label %33

32:                                               ; preds = %24
  store i32 -1, ptr %3, align 4
  br label %38

33:                                               ; preds = %24
  br label %34

34:                                               ; preds = %33
  br label %35

35:                                               ; preds = %34
  %36 = load ptr, ptr %4, align 8, !tbaa !11
  %37 = call i32 @append_char(ptr noundef %36, i32 noundef 41)
  store i32 %37, ptr %3, align 4
  br label %38

38:                                               ; preds = %10, %21, %32, %35
  %39 = load i32, ptr %3, align 4
  ret i32 %39
}