; Function Attrs: nounwind uwtable
define internal fastcc i32 @append_ast_genexp(ptr noundef nonnull %0, ptr noundef readonly captures(none) %1) unnamed_addr #0 {
  %3 = tail call i32 @PyUnicodeWriter_WriteChar(ptr noundef nonnull %0, i32 noundef 40) #3
  %4 = icmp eq i32 %3, -1
  br i1 %4, label %append_ast_comprehensions.exit.thread, label %5

5:                                                ; preds = %2
  %6 = getelementptr inbounds nuw i8, ptr %1, i64 8
  %7 = load ptr, ptr %6, align 8, !tbaa !9
  %8 = tail call fastcc i32 @append_ast_expr(ptr noundef %0, ptr noundef %7, i32 noundef 1)
  %9 = icmp eq i32 %8, -1
  br i1 %9, label %append_ast_comprehensions.exit.thread, label %10

10:                                               ; preds = %5
  %11 = getelementptr inbounds nuw i8, ptr %1, i64 16
  %12 = load ptr, ptr %11, align 8, !tbaa !9
  %13 = icmp eq ptr %12, null
  br i1 %13, label %append_ast_comprehensions.exit, label %14

14:                                               ; preds = %10
  %15 = load i64, ptr %12, align 8, !tbaa !10
  %16 = icmp sgt i64 %15, 0
  br i1 %16, label %.lr.ph, label %append_ast_comprehensions.exit

.lr.ph:                                           ; preds = %14
  %17 = getelementptr inbounds nuw i8, ptr %12, i64 16
  br label %20

18:                                               ; preds = %20
  %19 = add nuw nsw i64 %.08.i7, 1
  %exitcond.not = icmp eq i64 %19, %15
  br i1 %exitcond.not, label %append_ast_comprehensions.exit, label %20, !llvm.loop !41

20:                                               ; preds = %.lr.ph, %18
  %.08.i7 = phi i64 [ 0, %.lr.ph ], [ %19, %18 ]
  %21 = getelementptr [1 x ptr], ptr %17, i64 0, i64 %.08.i7
  %22 = load ptr, ptr %21, align 8, !tbaa !42
  %23 = tail call fastcc i32 @append_ast_comprehension(ptr noundef nonnull %0, ptr noundef %22)
  %24 = icmp eq i32 %23, -1
  br i1 %24, label %append_ast_comprehensions.exit.thread, label %18

append_ast_comprehensions.exit:                   ; preds = %18, %10, %14
  %25 = tail call i32 @PyUnicodeWriter_WriteChar(ptr noundef nonnull %0, i32 noundef 41) #3
  br label %append_ast_comprehensions.exit.thread

append_ast_comprehensions.exit.thread:            ; preds = %20, %5, %2, %append_ast_comprehensions.exit
  %.0 = phi i32 [ %25, %append_ast_comprehensions.exit ], [ -1, %2 ], [ -1, %5 ], [ -1, %20 ]
  ret i32 %.0
}